target datalayout = "e-m:e-p270:32:32-p271:32:32-p272:64:64-i64:64-i128:128-f80:128-n8:16:32:64-S128"
target triple = "x86_64-pc-linux-gnu"

@hf_cigi3_3_symbol_clone_symbol_id = internal global i32 0, align 4
@hf_cigi3_3_symbol_clone_source_type = internal global i32 0, align 4
@hf_cigi3_3_symbol_clone_source_id = internal global i32 0, align 4
@cigi_byte_order = internal global i32 0, align 4
@cigi_minor_version = internal global i32 0, align 4

; Function Attrs: null_pointer_is_valid sspstrong uwtable
define internal i32 @cigi3_3_add_symbol_clone(ptr noundef %0, ptr noundef %1, ptr noundef %2, ptr noundef %3) #0 {
  %5 = alloca i32, align 4
  %6 = alloca ptr, align 8
  %7 = alloca ptr, align 8
  %8 = alloca ptr, align 8
  %9 = alloca ptr, align 8
  %10 = alloca i32, align 4
  %11 = alloca i32, align 4
  store ptr %0, ptr %6, align 8
  store ptr %1, ptr %7, align 8
  store ptr %2, ptr %8, align 8
  store ptr %3, ptr %9, align 8
  call void @llvm.lifetime.start.p0(i64 4, ptr %10) #5
  store i32 0, ptr %10, align 4
  %12 = load i32, ptr @cigi_minor_version, align 4
  %13 = icmp slt i32 %12, 3
  br i1 %13, label %14, label %16

14:                                               ; preds = %4
  %15 = load i32, ptr %10, align 4
  store i32 %15, ptr %5, align 4
  store i32 1, ptr %11, align 4
  br label %42

16:                                               ; preds = %4
  %17 = load ptr, ptr %8, align 8
  %18 = load i32, ptr @hf_cigi3_3_symbol_clone_symbol_id, align 4
  %19 = load ptr, ptr %6, align 8
  %20 = load i32, ptr %10, align 4
  %21 = load i32, ptr @cigi_byte_order, align 4
  %22 = call ptr @proto_tree_add_item(ptr noundef %17, i32 noundef %18, ptr noundef %19, i32 noundef %20, i32 noundef 2, i32 noundef %21)
  %23 = load i32, ptr %10, align 4
  %24 = add i32 %23, 2
  store i32 %24, ptr %10, align 4
  %25 = load ptr, ptr %8, align 8
  %26 = load i32, ptr @hf_cigi3_3_symbol_clone_source_type, align 4
  %27 = load ptr, ptr %6, align 8
  %28 = load i32, ptr %10, align 4
  %29 = load i32, ptr @cigi_byte_order, align 4
  %30 = call ptr @proto_tree_add_item(ptr noundef %25, i32 noundef %26, ptr noundef %27, i32 noundef %28, i32 noundef 1, i32 noundef %29)
  %31 = load i32, ptr %10, align 4
  %32 = add i32 %31, 2
  store i32 %32, ptr %10, align 4
  %33 = load ptr, ptr %8, align 8
  %34 = load i32, ptr @hf_cigi3_3_symbol_clone_source_id, align 4
  %35 = load ptr, ptr %6, align 8
  %36 = load i32, ptr %10, align 4
  %37 = load i32, ptr @cigi_byte_order, align 4
  %38 = call ptr @proto_tree_add_item(ptr noundef %33, i32 noundef %34, ptr noundef %35, i32 noundef %36, i32 noundef 2, i32 noundef %37)
  %39 = load i32, ptr %10, align 4
  %40 = add i32 %39, 2
  store i32 %40, ptr %10, align 4
  %41 = load i32, ptr %10, align 4
  store i32 %41, ptr %5, align 4
  store i32 1, ptr %11, align 4
  br label %42

42:                                               ; preds = %16, %14
  call void @llvm.lifetime.end.p0(i64 4, ptr %10) #5
  %43 = load i32, ptr %5, align 4
  ret i32 %43
}