; Function Attrs: null_pointer_is_valid sspstrong uwtable
define internal range(i32 0, 7) i32 @cigi3_3_add_symbol_clone(ptr noundef %0, ptr readnone captures(none) %1, ptr noundef %2, ptr readnone captures(none) %3) #0 {
  %5 = load i32, ptr @cigi_minor_version, align 4
  %6 = icmp slt i32 %5, 3
  br i1 %6, label %17, label %7

7:                                                ; preds = %4
  %8 = load i32, ptr @hf_cigi3_3_symbol_clone_symbol_id, align 4
  %.b15 = load i1, ptr @cigi_byte_order, align 4
  %9 = select i1 %.b15, i32 -2147483648, i32 0
  %10 = tail call ptr @proto_tree_add_item(ptr noundef %2, i32 noundef %8, ptr noundef %0, i32 noundef 0, i32 noundef 2, i32 noundef %9)
  %11 = load i32, ptr @hf_cigi3_3_symbol_clone_source_type, align 4
  %.b14 = load i1, ptr @cigi_byte_order, align 4
  %12 = select i1 %.b14, i32 -2147483648, i32 0
  %13 = tail call ptr @proto_tree_add_item(ptr noundef %2, i32 noundef %11, ptr noundef %0, i32 noundef 2, i32 noundef 1, i32 noundef %12)
  %14 = load i32, ptr @hf_cigi3_3_symbol_clone_source_id, align 4
  %.b = load i1, ptr @cigi_byte_order, align 4
  %15 = select i1 %.b, i32 -2147483648, i32 0
  %16 = tail call ptr @proto_tree_add_item(ptr noundef %2, i32 noundef %14, ptr noundef %0, i32 noundef 4, i32 noundef 2, i32 noundef %15)
  br label %17

17:                                               ; preds = %4, %7
  %.0 = phi i32 [ 6, %7 ], [ 0, %4 ]
  ret i32 %.0
}